(itexttable
Texttable
p0
(dp1
S'_char_vert'
p2
S'|'
p3
sS'_char_horiz'
p4
S'-'
p5
sS'_align'
p6
(lp7
S'c'
p8
ag8
asS'_rows'
p9
(lp10
(lp11
S'3312badcb6880bdbfa2b9c46bd6cdb69c3fde28c'
p12
aS'snap62'
p13
aasS'_char_corner'
p14
S'+'
p15
sS'_char_header'
p16
S'='
p17
sS'_header'
p18
(lp19
S'SHA of Commit'
p20
aS'Snapshot Name'
p21
asS'_hline_string'
p22
NsS'_deco'
p23
I15
sS'_row_size'
p24
I2
sS'_dtype'
p25
(lp26
S'a'
p27
ag27
asS'_max_width'
p28
I80
sS'_precision'
p29
I3
sb.